target datalayout = "e-m:e-p270:32:32-p271:32:32-p272:64:64-i64:64-i128:128-f80:128-n8:16:32:64-S128"
target triple = "x86_64-pc-linux-gnu"

; Function Attrs: mustprogress nounwind uwtable
define hidden noundef ptr @_ZN19OpenColorIO_v2_5dev8Platform13AlignedMallocEmm(i64 noundef %0, i64 noundef %1) #2 {
  %3 = alloca ptr, align 8
  %4 = alloca i64, align 8
  %5 = alloca i64, align 8
  %6 = alloca ptr, align 8
  %7 = alloca i32, align 4
  store i64 %0, ptr %4, align 8, !tbaa !14
  store i64 %1, ptr %5, align 8, !tbaa !14
  call void @llvm.lifetime.start.p0(i64 8, ptr %6) #1
  store ptr null, ptr %6, align 8, !tbaa !16
  %8 = load i64, ptr %5, align 8, !tbaa !14
  %9 = load i64, ptr %4, align 8, !tbaa !14
  %10 = call i32 @posix_memalign(ptr noundef %6, i64 noundef %8, i64 noundef %9) #1
  %11 = icmp ne i32 %10, 0
  br i1 %11, label %14, label %12

12:                                               ; preds = %2
  %13 = load ptr, ptr %6, align 8, !tbaa !16
  store ptr %13, ptr %3, align 8
  store i32 1, ptr %7, align 4
  br label %15

14:                                               ; preds = %2
  store ptr null, ptr %3, align 8
  store i32 1, ptr %7, align 4
  br label %15

15:                                               ; preds = %14, %12
  call void @llvm.lifetime.end.p0(i64 8, ptr %6) #1
  %16 = load ptr, ptr %3, align 8
  ret ptr %16
}