; Function Attrs: mustprogress nofree nounwind uwtable
define hidden noundef ptr @_ZN19OpenColorIO_v2_5dev8Platform13AlignedMallocEmm(i64 noundef %0, i64 noundef %1) local_unnamed_addr #4 {
  %3 = alloca ptr, align 8
  call void @llvm.lifetime.start.p0(i64 8, ptr nonnull %3) #20
  store ptr null, ptr %3, align 8, !tbaa !16
  %4 = call i32 @posix_memalign(ptr noundef nonnull %3, i64 noundef %1, i64 noundef %0) #20
  %.not = icmp eq i32 %4, 0
  %5 = load ptr, ptr %3, align 8
  %.0 = select i1 %.not, ptr %5, ptr null
  call void @llvm.lifetime.end.p0(i64 8, ptr nonnull %3) #20
  ret ptr %.0
}